target datalayout = "e-m:e-p270:32:32-p271:32:32-p272:64:64-i64:64-i128:128-f80:128-n8:16:32:64-S128"
target triple = "x86_64-pc-linux-gnu"

%struct.shm_mq = type { i8, ptr, ptr, %struct.pg_atomic_uint64, %struct.pg_atomic_uint64, i64, i8, i8, [0 x i8] }
%struct.pg_atomic_uint64 = type { i64 }
%struct.PGPROC = type { %struct.dlist_node, ptr, ptr, i32, %struct.Latch, i32, i32, i32, i32, %struct.anon, i32, i32, i32, i8, i8, i8, i8, %struct.proclist_node, %struct.proclist_node, ptr, ptr, i32, i32, %struct.pg_atomic_uint64, i32, i8, i64, i32, %struct.dlist_node, [16 x %struct.dlist_head], %struct.XidCacheStatus, %struct.XidCache, i8, %struct.pg_atomic_uint32, i32, i32, i8, %struct.pg_atomic_uint32, i32, i32, i64, i64, %struct.LWLock, ptr, ptr, i8, i32, ptr, %struct.dlist_head, %struct.dlist_node }
%struct.Latch = type { i32, i32, i8, i32 }
%struct.anon = type { i32, i32 }
%struct.proclist_node = type { i32, i32 }
%struct.XidCacheStatus = type { i8, i8 }
%struct.XidCache = type { [64 x i32] }
%struct.pg_atomic_uint32 = type { i32 }
%struct.LWLock = type { i16, %struct.pg_atomic_uint32, %struct.proclist_head }
%struct.proclist_head = type { i32, i32 }
%struct.dlist_head = type { %struct.dlist_node }
%struct.dlist_node = type { ptr, ptr }
%struct.shm_mq_handle = type { ptr, ptr, ptr, ptr, i64, i64, i64, i64, i64, i8, i8, ptr }

@MyLatch = external global ptr, align 8
@InterruptPending = external global i32, align 4

; Function Attrs: inlinehint nounwind uwtable
define internal void @pg_atomic_write_u64_impl(ptr noundef %0, i64 noundef %1) #2 {
  %3 = alloca ptr, align 8
  %4 = alloca i64, align 8
  store ptr %0, ptr %3, align 8
  store i64 %1, ptr %4, align 8
  %5 = load i64, ptr %4, align 8
  %6 = load ptr, ptr %3, align 8
  %7 = getelementptr inbounds nuw %struct.pg_atomic_uint64, ptr %6, i32 0, i32 0
  store volatile i64 %5, ptr %7, align 8
  ret void
}

; Function Attrs: inlinehint nounwind uwtable
define internal void @pg_atomic_write_u64(ptr noundef %0, i64 noundef %1) #2 {
  %3 = alloca ptr, align 8
  %4 = alloca i64, align 8
  store ptr %0, ptr %3, align 8
  store i64 %1, ptr %4, align 8
  %5 = load ptr, ptr %3, align 8
  %6 = load i64, ptr %4, align 8
  call void @pg_atomic_write_u64_impl(ptr noundef %5, i64 noundef %6)
  ret void
}

; Function Attrs: inlinehint nounwind uwtable
define internal i64 @pg_atomic_read_u64_impl(ptr noundef %0) #2 {
  %2 = alloca ptr, align 8
  store ptr %0, ptr %2, align 8
  %3 = load ptr, ptr %2, align 8
  %4 = getelementptr inbounds nuw %struct.pg_atomic_uint64, ptr %3, i32 0, i32 0
  %5 = load volatile i64, ptr %4, align 8
  ret i64 %5
}

; Function Attrs: nounwind uwtable
define internal void @shm_mq_inc_bytes_read(ptr noundef %0, i64 noundef %1) #0 {
  %3 = alloca ptr, align 8
  %4 = alloca i64, align 8
  %5 = alloca ptr, align 8
  store ptr %0, ptr %3, align 8
  store i64 %1, ptr %4, align 8
  call void @llvm.lifetime.start.p0(i64 8, ptr %5) #8
  call void asm sideeffect "", "~{memory},~{dirflag},~{fpsr},~{flags}"() #8, !srcloc !23
  %6 = load ptr, ptr %3, align 8
  %7 = getelementptr inbounds nuw %struct.shm_mq, ptr %6, i32 0, i32 3
  %8 = load ptr, ptr %3, align 8
  %9 = getelementptr inbounds nuw %struct.shm_mq, ptr %8, i32 0, i32 3
  %10 = call i64 @pg_atomic_read_u64(ptr noundef %9)
  %11 = load i64, ptr %4, align 8
  %12 = add i64 %10, %11
  call void @pg_atomic_write_u64(ptr noundef %7, i64 noundef %12)
  %13 = load ptr, ptr %3, align 8
  %14 = getelementptr inbounds nuw %struct.shm_mq, ptr %13, i32 0, i32 2
  %15 = load ptr, ptr %14, align 8
  store ptr %15, ptr %5, align 8
  %16 = load ptr, ptr %5, align 8
  %17 = getelementptr inbounds nuw %struct.PGPROC, ptr %16, i32 0, i32 4
  call void @SetLatch(ptr noundef %17)
  call void @llvm.lifetime.end.p0(i64 8, ptr %5) #8
  ret void
}

; Function Attrs: inlinehint nounwind uwtable
define internal i64 @pg_atomic_read_u64(ptr noundef %0) #2 {
  %2 = alloca ptr, align 8
  store ptr %0, ptr %2, align 8
  %3 = load ptr, ptr %2, align 8
  %4 = call i64 @pg_atomic_read_u64_impl(ptr noundef %3)
  ret i64 %4
}

; Function Attrs: nounwind uwtable
define internal i32 @shm_mq_receive_bytes(ptr noundef %0, i64 noundef %1, i1 noundef zeroext %2, ptr noundef %3, ptr noundef %4) #0 {
  %6 = alloca i32, align 4
  %7 = alloca ptr, align 8
  %8 = alloca i64, align 8
  %9 = alloca i8, align 1
  %10 = alloca ptr, align 8
  %11 = alloca ptr, align 8
  %12 = alloca ptr, align 8
  %13 = alloca i64, align 8
  %14 = alloca i64, align 8
  %15 = alloca i64, align 8
  %16 = alloca i64, align 8
  %17 = alloca i64, align 8
  %18 = alloca i32, align 4
  store ptr %0, ptr %7, align 8
  store i64 %1, ptr %8, align 8
  %19 = zext i1 %2 to i8
  store i8 %19, ptr %9, align 1
  store ptr %3, ptr %10, align 8
  store ptr %4, ptr %11, align 8
  call void @llvm.lifetime.start.p0(i64 8, ptr %12) #8
  %20 = load ptr, ptr %7, align 8
  %21 = getelementptr inbounds nuw %struct.shm_mq_handle, ptr %20, i32 0, i32 0
  %22 = load ptr, ptr %21, align 8
  store ptr %22, ptr %12, align 8
  call void @llvm.lifetime.start.p0(i64 8, ptr %13) #8
  %23 = load ptr, ptr %12, align 8
  %24 = getelementptr inbounds nuw %struct.shm_mq, ptr %23, i32 0, i32 5
  %25 = load i64, ptr %24, align 8
  store i64 %25, ptr %13, align 8
  call void @llvm.lifetime.start.p0(i64 8, ptr %14) #8
  call void @llvm.lifetime.start.p0(i64 8, ptr %15) #8
  br label %26

26:                                               ; preds = %123, %121, %5
  call void @llvm.lifetime.start.p0(i64 8, ptr %16) #8
  call void @llvm.lifetime.start.p0(i64 8, ptr %17) #8
  %27 = load ptr, ptr %12, align 8
  %28 = getelementptr inbounds nuw %struct.shm_mq, ptr %27, i32 0, i32 4
  %29 = call i64 @pg_atomic_read_u64(ptr noundef %28)
  store i64 %29, ptr %15, align 8
  %30 = load ptr, ptr %12, align 8
  %31 = getelementptr inbounds nuw %struct.shm_mq, ptr %30, i32 0, i32 3
  %32 = call i64 @pg_atomic_read_u64(ptr noundef %31)
  %33 = load ptr, ptr %7, align 8
  %34 = getelementptr inbounds nuw %struct.shm_mq_handle, ptr %33, i32 0, i32 5
  %35 = load i64, ptr %34, align 8
  %36 = add i64 %32, %35
  store i64 %36, ptr %17, align 8
  %37 = load i64, ptr %15, align 8
  %38 = load i64, ptr %17, align 8
  %39 = sub i64 %37, %38
  store i64 %39, ptr %14, align 8
  %40 = load i64, ptr %17, align 8
  %41 = load i64, ptr %13, align 8
  %42 = urem i64 %40, %41
  store i64 %42, ptr %16, align 8
  %43 = load i64, ptr %14, align 8
  %44 = load i64, ptr %8, align 8
  %45 = icmp uge i64 %43, %44
  br i1 %45, label %52, label %46

46:                                               ; preds = %26
  %47 = load i64, ptr %16, align 8
  %48 = load i64, ptr %14, align 8
  %49 = add i64 %47, %48
  %50 = load i64, ptr %13, align 8
  %51 = icmp uge i64 %49, %50
  br i1 %51, label %52, label %77

52:                                               ; preds = %46, %26
  %53 = load i64, ptr %14, align 8
  %54 = load i64, ptr %13, align 8
  %55 = load i64, ptr %16, align 8
  %56 = sub i64 %54, %55
  %57 = icmp ult i64 %53, %56
  br i1 %57, label %58, label %60

58:                                               ; preds = %52
  %59 = load i64, ptr %14, align 8
  br label %64

60:                                               ; preds = %52
  %61 = load i64, ptr %13, align 8
  %62 = load i64, ptr %16, align 8
  %63 = sub i64 %61, %62
  br label %64

64:                                               ; preds = %60, %58
  %65 = phi i64 [ %59, %58 ], [ %63, %60 ]
  %66 = load ptr, ptr %10, align 8
  store i64 %65, ptr %66, align 8
  %67 = load ptr, ptr %12, align 8
  %68 = getelementptr inbounds nuw %struct.shm_mq, ptr %67, i32 0, i32 8
  %69 = load ptr, ptr %12, align 8
  %70 = getelementptr inbounds nuw %struct.shm_mq, ptr %69, i32 0, i32 7
  %71 = load i8, ptr %70, align 1
  %72 = zext i8 %71 to i64
  %73 = load i64, ptr %16, align 8
  %74 = add i64 %72, %73
  %75 = getelementptr inbounds nuw [0 x i8], ptr %68, i64 0, i64 %74
  %76 = load ptr, ptr %11, align 8
  store ptr %75, ptr %76, align 8
  call void asm sideeffect "", "~{memory},~{dirflag},~{fpsr},~{flags}"() #8, !srcloc !24
  store i32 0, ptr %6, align 4
  store i32 1, ptr %18, align 4
  br label %121

77:                                               ; preds = %46
  %78 = load ptr, ptr %12, align 8
  %79 = getelementptr inbounds nuw %struct.shm_mq, ptr %78, i32 0, i32 6
  %80 = load i8, ptr %79, align 8, !range !10, !noundef !11
  %81 = trunc i8 %80 to i1
  br i1 %81, label %82, label %90

82:                                               ; preds = %77
  call void asm sideeffect "", "~{memory},~{dirflag},~{fpsr},~{flags}"() #8, !srcloc !25
  %83 = load i64, ptr %15, align 8
  %84 = load ptr, ptr %12, align 8
  %85 = getelementptr inbounds nuw %struct.shm_mq, ptr %84, i32 0, i32 4
  %86 = call i64 @pg_atomic_read_u64(ptr noundef %85)
  %87 = icmp ne i64 %83, %86
  br i1 %87, label %88, label %89

88:                                               ; preds = %82
  store i32 3, ptr %18, align 4
  br label %121

89:                                               ; preds = %82
  store i32 2, ptr %6, align 4
  store i32 1, ptr %18, align 4
  br label %121

90:                                               ; preds = %77
  %91 = load ptr, ptr %7, align 8
  %92 = getelementptr inbounds nuw %struct.shm_mq_handle, ptr %91, i32 0, i32 5
  %93 = load i64, ptr %92, align 8
  %94 = icmp ugt i64 %93, 0
  br i1 %94, label %95, label %102

95:                                               ; preds = %90
  %96 = load ptr, ptr %12, align 8
  %97 = load ptr, ptr %7, align 8
  %98 = getelementptr inbounds nuw %struct.shm_mq_handle, ptr %97, i32 0, i32 5
  %99 = load i64, ptr %98, align 8
  call void @shm_mq_inc_bytes_read(ptr noundef %96, i64 noundef %99)
  %100 = load ptr, ptr %7, align 8
  %101 = getelementptr inbounds nuw %struct.shm_mq_handle, ptr %100, i32 0, i32 5
  store i64 0, ptr %101, align 8
  br label %102

102:                                              ; preds = %95, %90
  %103 = load i8, ptr %9, align 1, !range !10, !noundef !11
  %104 = trunc i8 %103 to i1
  br i1 %104, label %105, label %106

105:                                              ; preds = %102
  store i32 1, ptr %6, align 4
  store i32 1, ptr %18, align 4
  br label %121

106:                                              ; preds = %102
  %107 = load ptr, ptr @MyLatch, align 8
  %108 = call i32 @WaitLatch(ptr noundef %107, i32 noundef 33, i64 noundef 0, i32 noundef 134217763)
  %109 = load ptr, ptr @MyLatch, align 8
  call void @ResetLatch(ptr noundef %109)
  br label %110

110:                                              ; preds = %106
  %111 = load volatile i32, ptr @InterruptPending, align 4
  %112 = icmp ne i32 %111, 0
  %113 = zext i1 %112 to i32
  %114 = sext i32 %113 to i64
  %115 = call i64 @llvm.expect.i64(i64 %114, i64 0)
  %116 = icmp ne i64 %115, 0
  br i1 %116, label %117, label %118

117:                                              ; preds = %110
  call void @ProcessInterrupts()
  br label %118

118:                                              ; preds = %117, %110
  br label %119

119:                                              ; preds = %118
  br label %120

120:                                              ; preds = %119
  store i32 0, ptr %18, align 4
  br label %121

121:                                              ; preds = %120, %105, %89, %88, %64
  call void @llvm.lifetime.end.p0(i64 8, ptr %17) #8
  call void @llvm.lifetime.end.p0(i64 8, ptr %16) #8
  %122 = load i32, ptr %18, align 4
  switch i32 %122, label %124 [
    i32 0, label %123
    i32 3, label %26
  ]

123:                                              ; preds = %121
  br label %26

124:                                              ; preds = %121
  call void @llvm.lifetime.end.p0(i64 8, ptr %15) #8
  call void @llvm.lifetime.end.p0(i64 8, ptr %14) #8
  call void @llvm.lifetime.end.p0(i64 8, ptr %13) #8
  call void @llvm.lifetime.end.p0(i64 8, ptr %12) #8
  %125 = load i32, ptr %6, align 4
  ret i32 %125
}