; Function Attrs: nounwind uwtable
define internal fastcc range(i32 0, 3) i32 @shm_mq_receive_bytes(ptr noundef captures(none) %0, i64 noundef %1, i1 noundef zeroext %2, ptr noundef nonnull writeonly captures(none) %3, ptr noundef nonnull writeonly captures(none) %4) unnamed_addr #0 {
  %6 = load ptr, ptr %0, align 8
  %7 = getelementptr inbounds nuw i8, ptr %6, i64 40
  %8 = load i64, ptr %7, align 8
  %9 = getelementptr inbounds nuw i8, ptr %6, i64 32
  %10 = getelementptr inbounds nuw i8, ptr %6, i64 24
  %11 = getelementptr inbounds nuw i8, ptr %0, i64 40
  %12 = load volatile i64, ptr %9, align 8
  %13 = load volatile i64, ptr %10, align 8
  %14 = load i64, ptr %11, align 8
  %15 = add i64 %14, %13
  %16 = sub i64 %12, %15
  %17 = urem i64 %15, %8
  %.not47 = icmp ult i64 %16, %1
  %18 = add i64 %16, %17
  %.not3748 = icmp ult i64 %18, %8
  %or.cond49 = and i1 %.not47, %.not3748
  br i1 %or.cond49, label %.lr.ph, label %._crit_edge

.lr.ph:                                           ; preds = %5
  %19 = getelementptr inbounds nuw i8, ptr %6, i64 48
  %20 = getelementptr inbounds nuw i8, ptr %6, i64 16
  br i1 %2, label %.lr.ph.split.us, label %.lr.ph.split

.lr.ph.split.us:                                  ; preds = %.lr.ph
  %21 = load i8, ptr %19, align 8, !range !13, !noundef !14
  %22 = trunc nuw i8 %21 to i1
  br i1 %22, label %.lr.ph56, label %._crit_edge57

23:                                               ; preds = %33
  %24 = load i8, ptr %19, align 8, !range !13, !noundef !14
  %25 = trunc nuw i8 %24 to i1
  br i1 %25, label %.lr.ph56, label %._crit_edge57

._crit_edge57:                                    ; preds = %23, %.lr.ph.split.us
  %.lcssa53 = phi i64 [ %14, %.lr.ph.split.us ], [ %36, %23 ]
  %.not38.us = icmp eq i64 %.lcssa53, 0
  br i1 %.not38.us, label %select.unfold, label %26

26:                                               ; preds = %._crit_edge57
  tail call void asm sideeffect "", "~{memory},~{dirflag},~{fpsr},~{flags}"() #11, !srcloc !23
  %27 = load volatile i64, ptr %10, align 8
  %28 = add i64 %27, %.lcssa53
  store volatile i64 %28, ptr %10, align 8
  %29 = load ptr, ptr %20, align 8
  %30 = getelementptr inbounds nuw i8, ptr %29, i64 36
  tail call void @SetLatch(ptr noundef nonnull %30) #11
  store i64 0, ptr %11, align 8
  br label %select.unfold

.lr.ph56:                                         ; preds = %.lr.ph.split.us, %23
  %31 = phi i64 [ %34, %23 ], [ %12, %.lr.ph.split.us ]
  tail call void asm sideeffect "", "~{memory},~{dirflag},~{fpsr},~{flags}"() #11, !srcloc !26
  %32 = load volatile i64, ptr %9, align 8
  %.not40.us = icmp eq i64 %31, %32
  br i1 %.not40.us, label %select.unfold, label %33

33:                                               ; preds = %.lr.ph56
  %34 = load volatile i64, ptr %9, align 8
  %35 = load volatile i64, ptr %10, align 8
  %36 = load i64, ptr %11, align 8
  %37 = add i64 %36, %35
  %38 = sub i64 %34, %37
  %39 = urem i64 %37, %8
  %.not.us = icmp ult i64 %38, %1
  %40 = add i64 %38, %39
  %.not37.us = icmp ult i64 %40, %8
  %or.cond.us = and i1 %.not.us, %.not37.us
  br i1 %or.cond.us, label %23, label %._crit_edge

._crit_edge:                                      ; preds = %67, %33, %5
  %.lcssa45 = phi i64 [ %16, %5 ], [ %38, %33 ], [ %72, %67 ]
  %.lcssa = phi i64 [ %17, %5 ], [ %39, %33 ], [ %73, %67 ]
  %41 = sub i64 %8, %.lcssa
  %42 = tail call i64 @llvm.umin.i64(i64 %.lcssa45, i64 %41)
  store i64 %42, ptr %3, align 8
  %43 = getelementptr inbounds nuw i8, ptr %6, i64 50
  %44 = getelementptr inbounds nuw i8, ptr %6, i64 49
  %45 = load i8, ptr %44, align 1
  %46 = zext i8 %45 to i64
  %47 = add i64 %.lcssa, %46
  %48 = getelementptr inbounds nuw [0 x i8], ptr %43, i64 0, i64 %47
  store ptr %48, ptr %4, align 8
  tail call void asm sideeffect "", "~{memory},~{dirflag},~{fpsr},~{flags}"() #11, !srcloc !27
  br label %select.unfold

.lr.ph.split:                                     ; preds = %.lr.ph, %67
  %49 = phi i64 [ %70, %67 ], [ %14, %.lr.ph ]
  %50 = phi i64 [ %68, %67 ], [ %12, %.lr.ph ]
  %51 = load i8, ptr %19, align 8, !range !13, !noundef !14
  %52 = trunc nuw i8 %51 to i1
  br i1 %52, label %53, label %55

53:                                               ; preds = %.lr.ph.split
  tail call void asm sideeffect "", "~{memory},~{dirflag},~{fpsr},~{flags}"() #11, !srcloc !26
  %54 = load volatile i64, ptr %9, align 8
  %.not40 = icmp eq i64 %50, %54
  br i1 %.not40, label %select.unfold, label %67

55:                                               ; preds = %.lr.ph.split
  %.not38 = icmp eq i64 %49, 0
  br i1 %.not38, label %61, label %56

56:                                               ; preds = %55
  tail call void asm sideeffect "", "~{memory},~{dirflag},~{fpsr},~{flags}"() #11, !srcloc !23
  %57 = load volatile i64, ptr %10, align 8
  %58 = add i64 %57, %49
  store volatile i64 %58, ptr %10, align 8
  %59 = load ptr, ptr %20, align 8
  %60 = getelementptr inbounds nuw i8, ptr %59, i64 36
  tail call void @SetLatch(ptr noundef nonnull %60) #11
  store i64 0, ptr %11, align 8
  br label %61

61:                                               ; preds = %56, %55
  %62 = load ptr, ptr @MyLatch, align 8
  %63 = tail call i32 @WaitLatch(ptr noundef %62, i32 noundef 33, i64 noundef 0, i32 noundef 134217763) #11
  %64 = load ptr, ptr @MyLatch, align 8
  tail call void @ResetLatch(ptr noundef %64) #11
  %65 = load volatile i32, ptr @InterruptPending, align 4
  %.not39 = icmp eq i32 %65, 0
  br i1 %.not39, label %67, label %66, !prof !20

66:                                               ; preds = %61
  tail call void @ProcessInterrupts() #11
  br label %67

67:                                               ; preds = %53, %61, %66
  %68 = load volatile i64, ptr %9, align 8
  %69 = load volatile i64, ptr %10, align 8
  %70 = load i64, ptr %11, align 8
  %71 = add i64 %70, %69
  %72 = sub i64 %68, %71
  %73 = urem i64 %71, %8
  %.not = icmp ult i64 %72, %1
  %74 = add i64 %72, %73
  %.not37 = icmp ult i64 %74, %8
  %or.cond = and i1 %.not, %.not37
  br i1 %or.cond, label %.lr.ph.split, label %._crit_edge

select.unfold:                                    ; preds = %53, %.lr.ph56, %._crit_edge57, %26, %._crit_edge
  %.1.ph = phi i32 [ 0, %._crit_edge ], [ 1, %26 ], [ 1, %._crit_edge57 ], [ 2, %.lr.ph56 ], [ 2, %53 ]
  ret i32 %.1.ph
}